target datalayout = "e-m:e-p270:32:32-p271:32:32-p272:64:64-i64:64-i128:128-f80:128-n8:16:32:64-S128"
target triple = "x86_64-pc-linux-gnu"

%struct.SlruCtlData = type { ptr, i16, i8, i32, ptr, [64 x i8] }
%struct.pg_atomic_uint64 = type { i64 }
%struct.SlruSharedData = type { i32, ptr, ptr, ptr, ptr, ptr, ptr, ptr, ptr, ptr, i32, %struct.pg_atomic_uint64, i32 }
%struct.TransamVariablesData = type { i32, i32, %struct.FullTransactionId, i32, i32, i32, i32, i32, i32, i32, i32, %struct.FullTransactionId, i64, i32 }
%struct.FullTransactionId = type { i64 }

@XactCtlData = internal global %struct.SlruCtlData zeroinitializer, align 8
@TransamVariables = external global ptr, align 8

; Function Attrs: inlinehint nounwind uwtable
define internal void @pg_atomic_write_u64_impl(ptr noundef %0, i64 noundef %1) #2 {
  %3 = alloca ptr, align 8
  %4 = alloca i64, align 8
  store ptr %0, ptr %3, align 8
  store i64 %1, ptr %4, align 8
  %5 = load i64, ptr %4, align 8
  %6 = load ptr, ptr %3, align 8
  %7 = getelementptr inbounds nuw %struct.pg_atomic_uint64, ptr %6, i32 0, i32 0
  store volatile i64 %5, ptr %7, align 8
  ret void
}

; Function Attrs: inlinehint nounwind uwtable
define internal void @pg_atomic_write_u64(ptr noundef %0, i64 noundef %1) #2 {
  %3 = alloca ptr, align 8
  %4 = alloca i64, align 8
  store ptr %0, ptr %3, align 8
  store i64 %1, ptr %4, align 8
  %5 = load ptr, ptr %3, align 8
  %6 = load i64, ptr %4, align 8
  call void @pg_atomic_write_u64_impl(ptr noundef %5, i64 noundef %6)
  ret void
}

; Function Attrs: inlinehint nounwind uwtable
define internal i64 @TransactionIdToPage(i32 noundef %0) #2 {
  %2 = alloca i32, align 4
  store i32 %0, ptr %2, align 4
  %3 = load i32, ptr %2, align 4
  %4 = zext i32 %3 to i64
  %5 = sdiv i64 %4, 32768
  ret i64 %5
}

; Function Attrs: nounwind uwtable
define dso_local void @StartupCLOG() #0 {
  %1 = alloca i32, align 4
  %2 = alloca i64, align 8
  call void @llvm.lifetime.start.p0(i64 4, ptr %1) #8
  %3 = load ptr, ptr @TransamVariables, align 8
  %4 = getelementptr inbounds nuw %struct.TransamVariablesData, ptr %3, i32 0, i32 2
  %5 = getelementptr inbounds nuw %struct.FullTransactionId, ptr %4, i32 0, i32 0
  %6 = load i64, ptr %5, align 8
  %7 = trunc i64 %6 to i32
  store i32 %7, ptr %1, align 4
  call void @llvm.lifetime.start.p0(i64 8, ptr %2) #8
  %8 = load i32, ptr %1, align 4
  %9 = call i64 @TransactionIdToPage(i32 noundef %8)
  store i64 %9, ptr %2, align 8
  %10 = load ptr, ptr @XactCtlData, align 8
  %11 = getelementptr inbounds nuw %struct.SlruSharedData, ptr %10, i32 0, i32 11
  %12 = load i64, ptr %2, align 8
  call void @pg_atomic_write_u64(ptr noundef %11, i64 noundef %12)
  call void @llvm.lifetime.end.p0(i64 8, ptr %2) #8
  call void @llvm.lifetime.end.p0(i64 4, ptr %1) #8
  ret void
}