; Function Attrs: nofree norecurse nounwind uwtable
define dso_local void @StartupCLOG() local_unnamed_addr #3 {
  %1 = load ptr, ptr @TransamVariables, align 8
  %2 = getelementptr inbounds nuw i8, ptr %1, i64 8
  %3 = load i64, ptr %2, align 8
  %4 = lshr i64 %3, 15
  %5 = and i64 %4, 131071
  %6 = load ptr, ptr @XactCtlData, align 8
  %7 = getelementptr inbounds nuw i8, ptr %6, i64 88
  store volatile i64 %5, ptr %7, align 8
  ret void
}